target datalayout = "e-m:e-p270:32:32-p271:32:32-p272:64:64-i64:64-i128:128-f80:128-n8:16:32:64-S128"
target triple = "x86_64-pc-linux-gnu"

%union.Test8 = type { i8, [3 x i8] }

; Function Attrs: nounwind uwtable
define i64 @_testfunc_bitfield_by_value2(i32 %0) #0 {
  %2 = alloca %union.Test8, align 4
  %3 = alloca i64, align 8
  store i32 %0, ptr %2, align 4
  call void @llvm.lifetime.start.p0(i64 8, ptr %3) #12
  %4 = load i8, ptr %2, align 4
  %5 = shl i8 %4, 7
  %6 = ashr i8 %5, 7
  %7 = sext i8 %6 to i32
  %8 = load i8, ptr %2, align 4
  %9 = shl i8 %8, 6
  %10 = ashr i8 %9, 6
  %11 = sext i8 %10 to i32
  %12 = add i32 %7, %11
  %13 = load i8, ptr %2, align 4
  %14 = shl i8 %13, 5
  %15 = ashr i8 %14, 5
  %16 = sext i8 %15 to i32
  %17 = add i32 %12, %16
  %18 = load i8, ptr %2, align 4
  %19 = shl i8 %18, 6
  %20 = ashr i8 %19, 6
  %21 = sext i8 %20 to i32
  %22 = add i32 %17, %21
  %23 = sext i32 %22 to i64
  store i64 %23, ptr %3, align 8, !tbaa !35
  call void @llvm.memset.p0.i64(ptr align 4 %2, i8 0, i64 4, i1 false)
  %24 = load i64, ptr %3, align 8, !tbaa !35
  call void @llvm.lifetime.end.p0(i64 8, ptr %3) #12
  ret i64 %24
}