; Function Attrs: mustprogress nofree norecurse nosync nounwind willreturn memory(none) uwtable
define range(i64 -9, 6) i64 @_testfunc_bitfield_by_value2(i32 %0) local_unnamed_addr #10 {
  %2 = and i32 %0, 1
  %3 = shl i32 %0, 30
  %4 = shl i32 %0, 29
  %5 = ashr exact i32 %4, 29
  %factor = ashr exact i32 %3, 29
  %6 = sub nsw i32 %5, %2
  %7 = add nsw i32 %6, %factor
  %8 = sext i32 %7 to i64
  ret i64 %8
}